target datalayout = "e-m:e-p270:32:32-p271:32:32-p272:64:64-i64:64-i128:128-f80:128-n8:16:32:64-S128"
target triple = "x86_64-pc-linux-gnu"

%struct.JsonbValue = type { i32, %union.anon.54 }
%union.anon.54 = type { %struct.anon.56 }
%struct.anon.56 = type { i32, ptr, i8 }
%struct.anon.55 = type { i32, ptr }
%struct.anon.59 = type { i64, i32, i32, i32 }

@.str.1 = private unnamed_addr constant [17 x i8] c"execExprInterp.c\00", align 1
@.str.50 = private unnamed_addr constant [38 x i8] c"unexpected jsonb datetime type oid %u\00", align 1
@__func__.ExecGetJsonValueItemString = private unnamed_addr constant [27 x i8] c"ExecGetJsonValueItemString\00", align 1
@.str.51 = private unnamed_addr constant [31 x i8] c"unexpected jsonb value type %d\00", align 1

; Function Attrs: inlinehint nounwind uwtable
define internal ptr @DatumGetPointer(i64 noundef %0) #2 {
  %2 = alloca i64, align 8
  store i64 %0, ptr %2, align 8
  %3 = load i64, ptr %2, align 8
  %4 = inttoptr i64 %3 to ptr
  ret ptr %4
}

; Function Attrs: inlinehint nounwind uwtable
define internal i64 @PointerGetDatum(ptr noundef %0) #2 {
  %2 = alloca ptr, align 8
  store ptr %0, ptr %2, align 8
  %3 = load ptr, ptr %2, align 8
  %4 = ptrtoint ptr %3 to i64
  ret i64 %4
}

; Function Attrs: inlinehint nounwind uwtable
define internal i64 @JsonbPGetDatum(ptr noundef %0) #2 {
  %2 = alloca ptr, align 8
  store ptr %0, ptr %2, align 8
  %3 = load ptr, ptr %2, align 8
  %4 = call i64 @PointerGetDatum(ptr noundef %3)
  ret i64 %4
}

; Function Attrs: inlinehint nounwind uwtable
define internal i64 @BoolGetDatum(i1 noundef zeroext %0) #2 {
  %2 = alloca i8, align 1
  %3 = zext i1 %0 to i8
  store i8 %3, ptr %2, align 1
  %4 = load i8, ptr %2, align 1, !range !7, !noundef !8
  %5 = trunc i8 %4 to i1
  %6 = select i1 %5, i32 1, i32 0
  %7 = sext i32 %6 to i64
  ret i64 %7
}

; Function Attrs: inlinehint nounwind uwtable
define internal ptr @DatumGetCString(i64 noundef %0) #2 {
  %2 = alloca i64, align 8
  store i64 %0, ptr %2, align 8
  %3 = load i64, ptr %2, align 8
  %4 = call ptr @DatumGetPointer(i64 noundef %3)
  ret ptr %4
}

; Function Attrs: inlinehint nounwind uwtable
define internal i64 @NumericGetDatum(ptr noundef %0) #2 {
  %2 = alloca ptr, align 8
  store ptr %0, ptr %2, align 8
  %3 = load ptr, ptr %2, align 8
  %4 = call i64 @PointerGetDatum(ptr noundef %3)
  ret i64 %4
}

; Function Attrs: nounwind uwtable
define internal ptr @ExecGetJsonValueItemString(ptr noundef %0, ptr noundef %1) #0 {
  %3 = alloca ptr, align 8
  %4 = alloca ptr, align 8
  %5 = alloca ptr, align 8
  %6 = alloca ptr, align 8
  store ptr %0, ptr %4, align 8
  store ptr %1, ptr %5, align 8
  %7 = load ptr, ptr %5, align 8
  store i8 0, ptr %7, align 1
  %8 = load ptr, ptr %4, align 8
  %9 = getelementptr inbounds nuw %struct.JsonbValue, ptr %8, i32 0, i32 0
  %10 = load i32, ptr %9, align 8
  switch i32 %10, label %115 [
    i32 0, label %11
    i32 1, label %13
    i32 2, label %39
    i32 3, label %46
    i32 32, label %54
    i32 16, label %109
    i32 17, label %109
    i32 18, label %109
  ]

11:                                               ; preds = %2
  %12 = load ptr, ptr %5, align 8
  store i8 1, ptr %12, align 1
  store ptr null, ptr %3, align 8
  br label %130

13:                                               ; preds = %2
  call void @llvm.lifetime.start.p0(i64 8, ptr %6) #11
  %14 = load ptr, ptr %4, align 8
  %15 = getelementptr inbounds nuw %struct.JsonbValue, ptr %14, i32 0, i32 1
  %16 = getelementptr inbounds nuw %struct.anon.55, ptr %15, i32 0, i32 0
  %17 = load i32, ptr %16, align 8
  %18 = add i32 %17, 1
  %19 = sext i32 %18 to i64
  %20 = call ptr @palloc(i64 noundef %19)
  store ptr %20, ptr %6, align 8
  %21 = load ptr, ptr %6, align 8
  %22 = load ptr, ptr %4, align 8
  %23 = getelementptr inbounds nuw %struct.JsonbValue, ptr %22, i32 0, i32 1
  %24 = getelementptr inbounds nuw %struct.anon.55, ptr %23, i32 0, i32 1
  %25 = load ptr, ptr %24, align 8
  %26 = load ptr, ptr %4, align 8
  %27 = getelementptr inbounds nuw %struct.JsonbValue, ptr %26, i32 0, i32 1
  %28 = getelementptr inbounds nuw %struct.anon.55, ptr %27, i32 0, i32 0
  %29 = load i32, ptr %28, align 8
  %30 = sext i32 %29 to i64
  call void @llvm.memcpy.p0.p0.i64(ptr align 1 %21, ptr align 1 %25, i64 %30, i1 false)
  %31 = load ptr, ptr %6, align 8
  %32 = load ptr, ptr %4, align 8
  %33 = getelementptr inbounds nuw %struct.JsonbValue, ptr %32, i32 0, i32 1
  %34 = getelementptr inbounds nuw %struct.anon.55, ptr %33, i32 0, i32 0
  %35 = load i32, ptr %34, align 8
  %36 = sext i32 %35 to i64
  %37 = getelementptr inbounds i8, ptr %31, i64 %36
  store i8 0, ptr %37, align 1
  %38 = load ptr, ptr %6, align 8
  store ptr %38, ptr %3, align 8
  call void @llvm.lifetime.end.p0(i64 8, ptr %6) #11
  br label %130

39:                                               ; preds = %2
  %40 = load ptr, ptr %4, align 8
  %41 = getelementptr inbounds nuw %struct.JsonbValue, ptr %40, i32 0, i32 1
  %42 = load ptr, ptr %41, align 8
  %43 = call i64 @NumericGetDatum(ptr noundef %42)
  %44 = call i64 @DirectFunctionCall1Coll(ptr noundef @numeric_out, i32 noundef 0, i64 noundef %43)
  %45 = call ptr @DatumGetCString(i64 noundef %44)
  store ptr %45, ptr %3, align 8
  br label %130

46:                                               ; preds = %2
  %47 = load ptr, ptr %4, align 8
  %48 = getelementptr inbounds nuw %struct.JsonbValue, ptr %47, i32 0, i32 1
  %49 = load i8, ptr %48, align 8, !range !7, !noundef !8
  %50 = trunc i8 %49 to i1
  %51 = call i64 @BoolGetDatum(i1 noundef zeroext %50)
  %52 = call i64 @DirectFunctionCall1Coll(ptr noundef @boolout, i32 noundef 0, i64 noundef %51)
  %53 = call ptr @DatumGetCString(i64 noundef %52)
  store ptr %53, ptr %3, align 8
  br label %130

54:                                               ; preds = %2
  %55 = load ptr, ptr %4, align 8
  %56 = getelementptr inbounds nuw %struct.JsonbValue, ptr %55, i32 0, i32 1
  %57 = getelementptr inbounds nuw %struct.anon.59, ptr %56, i32 0, i32 1
  %58 = load i32, ptr %57, align 8
  switch i32 %58, label %94 [
    i32 1082, label %59
    i32 1083, label %66
    i32 1266, label %73
    i32 1114, label %80
    i32 1184, label %87
  ]

59:                                               ; preds = %54
  %60 = load ptr, ptr %4, align 8
  %61 = getelementptr inbounds nuw %struct.JsonbValue, ptr %60, i32 0, i32 1
  %62 = getelementptr inbounds nuw %struct.anon.59, ptr %61, i32 0, i32 0
  %63 = load i64, ptr %62, align 8
  %64 = call i64 @DirectFunctionCall1Coll(ptr noundef @date_out, i32 noundef 0, i64 noundef %63)
  %65 = call ptr @DatumGetCString(i64 noundef %64)
  store ptr %65, ptr %3, align 8
  br label %130

66:                                               ; preds = %54
  %67 = load ptr, ptr %4, align 8
  %68 = getelementptr inbounds nuw %struct.JsonbValue, ptr %67, i32 0, i32 1
  %69 = getelementptr inbounds nuw %struct.anon.59, ptr %68, i32 0, i32 0
  %70 = load i64, ptr %69, align 8
  %71 = call i64 @DirectFunctionCall1Coll(ptr noundef @time_out, i32 noundef 0, i64 noundef %70)
  %72 = call ptr @DatumGetCString(i64 noundef %71)
  store ptr %72, ptr %3, align 8
  br label %130

73:                                               ; preds = %54
  %74 = load ptr, ptr %4, align 8
  %75 = getelementptr inbounds nuw %struct.JsonbValue, ptr %74, i32 0, i32 1
  %76 = getelementptr inbounds nuw %struct.anon.59, ptr %75, i32 0, i32 0
  %77 = load i64, ptr %76, align 8
  %78 = call i64 @DirectFunctionCall1Coll(ptr noundef @timetz_out, i32 noundef 0, i64 noundef %77)
  %79 = call ptr @DatumGetCString(i64 noundef %78)
  store ptr %79, ptr %3, align 8
  br label %130

80:                                               ; preds = %54
  %81 = load ptr, ptr %4, align 8
  %82 = getelementptr inbounds nuw %struct.JsonbValue, ptr %81, i32 0, i32 1
  %83 = getelementptr inbounds nuw %struct.anon.59, ptr %82, i32 0, i32 0
  %84 = load i64, ptr %83, align 8
  %85 = call i64 @DirectFunctionCall1Coll(ptr noundef @timestamp_out, i32 noundef 0, i64 noundef %84)
  %86 = call ptr @DatumGetCString(i64 noundef %85)
  store ptr %86, ptr %3, align 8
  br label %130

87:                                               ; preds = %54
  %88 = load ptr, ptr %4, align 8
  %89 = getelementptr inbounds nuw %struct.JsonbValue, ptr %88, i32 0, i32 1
  %90 = getelementptr inbounds nuw %struct.anon.59, ptr %89, i32 0, i32 0
  %91 = load i64, ptr %90, align 8
  %92 = call i64 @DirectFunctionCall1Coll(ptr noundef @timestamptz_out, i32 noundef 0, i64 noundef %91)
  %93 = call ptr @DatumGetCString(i64 noundef %92)
  store ptr %93, ptr %3, align 8
  br label %130

94:                                               ; preds = %54
  br label %95

95:                                               ; preds = %94
  br i1 true, label %96, label %98

96:                                               ; preds = %95
  %97 = call zeroext i1 @errstart_cold(i32 noundef 21, ptr noundef null) #12
  br i1 %97, label %100, label %106

98:                                               ; preds = %95
  %99 = call zeroext i1 @errstart(i32 noundef 21, ptr noundef null)
  br i1 %99, label %100, label %106

100:                                              ; preds = %98, %96
  %101 = load ptr, ptr %4, align 8
  %102 = getelementptr inbounds nuw %struct.JsonbValue, ptr %101, i32 0, i32 1
  %103 = getelementptr inbounds nuw %struct.anon.59, ptr %102, i32 0, i32 1
  %104 = load i32, ptr %103, align 8
  %105 = call i32 (ptr, ...) @errmsg_internal(ptr noundef @.str.50, i32 noundef %104)
  call void @errfinish(ptr noundef @.str.1, i32 noundef 5004, ptr noundef @__func__.ExecGetJsonValueItemString)
  br label %106

106:                                              ; preds = %100, %98, %96
  unreachable

107:                                              ; No predecessors!
  br label %108

108:                                              ; preds = %107
  br label %128

109:                                              ; preds = %2, %2, %2
  %110 = load ptr, ptr %4, align 8
  %111 = call ptr @JsonbValueToJsonb(ptr noundef %110)
  %112 = call i64 @JsonbPGetDatum(ptr noundef %111)
  %113 = call i64 @DirectFunctionCall1Coll(ptr noundef @jsonb_out, i32 noundef 0, i64 noundef %112)
  %114 = call ptr @DatumGetCString(i64 noundef %113)
  store ptr %114, ptr %3, align 8
  br label %130

115:                                              ; preds = %2
  br label %116

116:                                              ; preds = %115
  br i1 true, label %117, label %119

117:                                              ; preds = %116
  %118 = call zeroext i1 @errstart_cold(i32 noundef 21, ptr noundef null) #12
  br i1 %118, label %121, label %126

119:                                              ; preds = %116
  %120 = call zeroext i1 @errstart(i32 noundef 21, ptr noundef null)
  br i1 %120, label %121, label %126

121:                                              ; preds = %119, %117
  %122 = load ptr, ptr %4, align 8
  %123 = getelementptr inbounds nuw %struct.JsonbValue, ptr %122, i32 0, i32 0
  %124 = load i32, ptr %123, align 8
  %125 = call i32 (ptr, ...) @errmsg_internal(ptr noundef @.str.51, i32 noundef %124)
  call void @errfinish(ptr noundef @.str.1, i32 noundef 5015, ptr noundef @__func__.ExecGetJsonValueItemString)
  br label %126

126:                                              ; preds = %121, %119, %117
  unreachable

127:                                              ; No predecessors!
  br label %128

128:                                              ; preds = %127, %108
  %129 = load ptr, ptr %5, align 8
  store i8 1, ptr %129, align 1
  store ptr null, ptr %3, align 8
  br label %130

130:                                              ; preds = %128, %109, %87, %80, %73, %66, %59, %46, %39, %13, %11
  %131 = load ptr, ptr %3, align 8
  ret ptr %131
}