; Function Attrs: nounwind uwtable
define internal fastcc ptr @ExecGetJsonValueItemString(ptr noundef nonnull %0, ptr noundef writeonly captures(none) initializes((0, 1)) %1) unnamed_addr #0 {
  store i8 0, ptr %1, align 1
  %3 = load i32, ptr %0, align 8
  switch i32 %3, label %63 [
    i32 0, label %4
    i32 1, label %5
    i32 2, label %18
    i32 3, label %24
    i32 32, label %30
    i32 16, label %58
    i32 17, label %58
    i32 18, label %58
  ]

4:                                                ; preds = %2
  store i8 1, ptr %1, align 1
  br label %67

5:                                                ; preds = %2
  %6 = getelementptr inbounds nuw i8, ptr %0, i64 8
  %7 = load i32, ptr %6, align 8
  %8 = add i32 %7, 1
  %9 = sext i32 %8 to i64
  %10 = tail call ptr @palloc(i64 noundef %9) #18
  %11 = getelementptr inbounds nuw i8, ptr %0, i64 16
  %12 = load ptr, ptr %11, align 8
  %13 = load i32, ptr %6, align 8
  %14 = sext i32 %13 to i64
  tail call void @llvm.memcpy.p0.p0.i64(ptr align 1 %10, ptr align 1 %12, i64 %14, i1 false)
  %15 = load i32, ptr %6, align 8
  %16 = sext i32 %15 to i64
  %17 = getelementptr inbounds i8, ptr %10, i64 %16
  store i8 0, ptr %17, align 1
  br label %67

18:                                               ; preds = %2
  %19 = getelementptr inbounds nuw i8, ptr %0, i64 8
  %20 = load ptr, ptr %19, align 8
  %21 = ptrtoint ptr %20 to i64
  %22 = tail call i64 @DirectFunctionCall1Coll(ptr noundef nonnull @numeric_out, i32 noundef 0, i64 noundef %21) #18
  %23 = inttoptr i64 %22 to ptr
  br label %67

24:                                               ; preds = %2
  %25 = getelementptr inbounds nuw i8, ptr %0, i64 8
  %26 = load i8, ptr %25, align 8, !range !8, !noundef !9
  %27 = zext nneg i8 %26 to i64
  %28 = tail call i64 @DirectFunctionCall1Coll(ptr noundef nonnull @boolout, i32 noundef 0, i64 noundef %27) #18
  %29 = inttoptr i64 %28 to ptr
  br label %67

30:                                               ; preds = %2
  %31 = getelementptr inbounds nuw i8, ptr %0, i64 8
  %32 = getelementptr inbounds nuw i8, ptr %0, i64 16
  %33 = load i32, ptr %32, align 8
  switch i32 %33, label %54 [
    i32 1082, label %34
    i32 1083, label %38
    i32 1266, label %42
    i32 1114, label %46
    i32 1184, label %50
  ]

34:                                               ; preds = %30
  %35 = load i64, ptr %31, align 8
  %36 = tail call i64 @DirectFunctionCall1Coll(ptr noundef nonnull @date_out, i32 noundef 0, i64 noundef %35) #18
  %37 = inttoptr i64 %36 to ptr
  br label %67

38:                                               ; preds = %30
  %39 = load i64, ptr %31, align 8
  %40 = tail call i64 @DirectFunctionCall1Coll(ptr noundef nonnull @time_out, i32 noundef 0, i64 noundef %39) #18
  %41 = inttoptr i64 %40 to ptr
  br label %67

42:                                               ; preds = %30
  %43 = load i64, ptr %31, align 8
  %44 = tail call i64 @DirectFunctionCall1Coll(ptr noundef nonnull @timetz_out, i32 noundef 0, i64 noundef %43) #18
  %45 = inttoptr i64 %44 to ptr
  br label %67

46:                                               ; preds = %30
  %47 = load i64, ptr %31, align 8
  %48 = tail call i64 @DirectFunctionCall1Coll(ptr noundef nonnull @timestamp_out, i32 noundef 0, i64 noundef %47) #18
  %49 = inttoptr i64 %48 to ptr
  br label %67

50:                                               ; preds = %30
  %51 = load i64, ptr %31, align 8
  %52 = tail call i64 @DirectFunctionCall1Coll(ptr noundef nonnull @timestamptz_out, i32 noundef 0, i64 noundef %51) #18
  %53 = inttoptr i64 %52 to ptr
  br label %67

54:                                               ; preds = %30
  %55 = tail call zeroext i1 @errstart_cold(i32 noundef 21, ptr noundef null) #19
  tail call void @llvm.assume(i1 %55)
  %56 = load i32, ptr %32, align 8
  %57 = tail call i32 (ptr, ...) @errmsg_internal(ptr noundef nonnull @.str.50, i32 noundef %56) #18
  tail call void @errfinish(ptr noundef nonnull @.str.1, i32 noundef 5004, ptr noundef nonnull @__func__.ExecGetJsonValueItemString) #18
  unreachable

58:                                               ; preds = %2, %2, %2
  %59 = tail call ptr @JsonbValueToJsonb(ptr noundef nonnull %0) #18
  %60 = ptrtoint ptr %59 to i64
  %61 = tail call i64 @DirectFunctionCall1Coll(ptr noundef nonnull @jsonb_out, i32 noundef 0, i64 noundef %60) #18
  %62 = inttoptr i64 %61 to ptr
  br label %67

63:                                               ; preds = %2
  %64 = tail call zeroext i1 @errstart_cold(i32 noundef 21, ptr noundef null) #19
  tail call void @llvm.assume(i1 %64)
  %65 = load i32, ptr %0, align 8
  %66 = tail call i32 (ptr, ...) @errmsg_internal(ptr noundef nonnull @.str.51, i32 noundef %65) #18
  tail call void @errfinish(ptr noundef nonnull @.str.1, i32 noundef 5015, ptr noundef nonnull @__func__.ExecGetJsonValueItemString) #18
  unreachable

67:                                               ; preds = %58, %50, %46, %42, %38, %34, %24, %18, %5, %4
  %.0 = phi ptr [ %62, %58 ], [ %53, %50 ], [ %49, %46 ], [ %45, %42 ], [ %41, %38 ], [ %37, %34 ], [ %29, %24 ], [ %23, %18 ], [ %10, %5 ], [ null, %4 ]
  ret ptr %.0
}